target datalayout = "e-m:e-p270:32:32-p271:32:32-p272:64:64-i64:64-i128:128-f80:128-n8:16:32:64-S128"
target triple = "x86_64-unknown-linux-gnu"

%class.btBvhTriangleMeshShape = type <{ %class.btTriangleMeshShape, ptr, ptr, i8, i8, [11 x i8], [3 x i8] }>
%class.btTriangleMeshShape = type { %class.btConcaveShape.base, %class.btVector3, %class.btVector3, ptr }
%class.btConcaveShape.base = type <{ %class.btCollisionShape, float }>
%class.btCollisionShape = type { ptr, i32, ptr, i32, i32 }
%class.btVector3 = type { [4 x float] }

; Function Attrs: mustprogress nounwind uwtable
define linkonce_odr dso_local void @_ZN14btOptimizedBvhdlEPvS0_(ptr noundef %0, ptr noundef %1) #1 comdat align 2 {
entry:
  %.addr = alloca ptr, align 8
  %.addr1 = alloca ptr, align 8
  store ptr %0, ptr %.addr, align 8
  store ptr %1, ptr %.addr1, align 8
  ret void
}

; Function Attrs: mustprogress nounwind uwtable
define linkonce_odr dso_local noundef ptr @_ZN14btOptimizedBvhnwEmPv(i64 noundef %0, ptr noundef %ptr) #1 comdat align 2 {
entry:
  %.addr = alloca i64, align 8
  %ptr.addr = alloca ptr, align 8
  store i64 %0, ptr %.addr, align 8
  store ptr %ptr, ptr %ptr.addr, align 8
  %1 = load ptr, ptr %ptr.addr, align 8
  ret ptr %1
}

; Function Attrs: mustprogress uwtable
define dso_local void @_ZN22btBvhTriangleMeshShape17buildOptimizedBvhEv(ptr noundef nonnull align 8 dereferenceable(109) %this) #2 align 2 personality ptr @__gxx_personality_v0 {
entry:
  %this.addr = alloca ptr, align 8
  %mem = alloca ptr, align 8
  %exn.slot = alloca ptr, align 8
  %ehselector.slot = alloca i32, align 4
  store ptr %this, ptr %this.addr, align 8
  %this1 = load ptr, ptr %this.addr, align 8
  %m_ownsBvh = getelementptr inbounds %class.btBvhTriangleMeshShape, ptr %this1, i32 0, i32 4
  %0 = load i8, ptr %m_ownsBvh, align 1
  %tobool = trunc i8 %0 to i1
  br i1 %tobool, label %if.then, label %if.end

if.then:                                          ; preds = %entry
  %m_bvh = getelementptr inbounds %class.btBvhTriangleMeshShape, ptr %this1, i32 0, i32 1
  %1 = load ptr, ptr %m_bvh, align 8
  %vtable = load ptr, ptr %1, align 8
  %vfn = getelementptr inbounds ptr, ptr %vtable, i64 0
  %2 = load ptr, ptr %vfn, align 8
  call void %2(ptr noundef nonnull align 8 dereferenceable(244) %1) #12
  %m_bvh2 = getelementptr inbounds %class.btBvhTriangleMeshShape, ptr %this1, i32 0, i32 1
  %3 = load ptr, ptr %m_bvh2, align 8
  call void @_Z21btAlignedFreeInternalPv(ptr noundef %3)
  br label %if.end

if.end:                                           ; preds = %if.then, %entry
  %call = call noundef ptr @_Z22btAlignedAllocInternalmi(i64 noundef 248, i32 noundef 16)
  store ptr %call, ptr %mem, align 8
  %4 = load ptr, ptr %mem, align 8
  %call3 = call noundef ptr @_ZN14btOptimizedBvhnwEmPv(i64 noundef 248, ptr noundef %4)
  invoke void @_ZN14btOptimizedBvhC1Ev(ptr noundef nonnull align 8 dereferenceable(244) %call3)
          to label %invoke.cont unwind label %lpad

invoke.cont:                                      ; preds = %if.end
  %m_bvh4 = getelementptr inbounds %class.btBvhTriangleMeshShape, ptr %this1, i32 0, i32 1
  store ptr %call3, ptr %m_bvh4, align 8
  %m_bvh5 = getelementptr inbounds %class.btBvhTriangleMeshShape, ptr %this1, i32 0, i32 1
  %5 = load ptr, ptr %m_bvh5, align 8
  %m_meshInterface = getelementptr inbounds %class.btTriangleMeshShape, ptr %this1, i32 0, i32 3
  %6 = load ptr, ptr %m_meshInterface, align 8
  %m_useQuantizedAabbCompression = getelementptr inbounds %class.btBvhTriangleMeshShape, ptr %this1, i32 0, i32 3
  %7 = load i8, ptr %m_useQuantizedAabbCompression, align 8
  %tobool6 = trunc i8 %7 to i1
  %m_localAabbMin = getelementptr inbounds %class.btTriangleMeshShape, ptr %this1, i32 0, i32 1
  %m_localAabbMax = getelementptr inbounds %class.btTriangleMeshShape, ptr %this1, i32 0, i32 2
  call void @_ZN14btOptimizedBvh5buildEP23btStridingMeshInterfacebRK9btVector3S4_(ptr noundef nonnull align 8 dereferenceable(244) %5, ptr noundef %6, i1 noundef zeroext %tobool6, ptr noundef nonnull align 4 dereferenceable(16) %m_localAabbMin, ptr noundef nonnull align 4 dereferenceable(16) %m_localAabbMax)
  %m_ownsBvh7 = getelementptr inbounds %class.btBvhTriangleMeshShape, ptr %this1, i32 0, i32 4
  store i8 1, ptr %m_ownsBvh7, align 1
  ret void

lpad:                                             ; preds = %if.end
  %8 = landingpad { ptr, i32 }
          cleanup
  %9 = extractvalue { ptr, i32 } %8, 0
  store ptr %9, ptr %exn.slot, align 8
  %10 = extractvalue { ptr, i32 } %8, 1
  store i32 %10, ptr %ehselector.slot, align 4
  call void @_ZN14btOptimizedBvhdlEPvS0_(ptr noundef %call3, ptr noundef %4) #12
  br label %eh.resume

eh.resume:                                        ; preds = %lpad
  %exn = load ptr, ptr %exn.slot, align 8
  %sel = load i32, ptr %ehselector.slot, align 4
  %lpad.val = insertvalue { ptr, i32 } poison, ptr %exn, 0
  %lpad.val8 = insertvalue { ptr, i32 } %lpad.val, i32 %sel, 1
  resume { ptr, i32 } %lpad.val8
}