; Function Attrs: mustprogress uwtable
define dso_local void @_ZN22btBvhTriangleMeshShape17buildOptimizedBvhEv(ptr noundef nonnull align 8 dereferenceable(109) %this) local_unnamed_addr #0 align 2 personality ptr @__gxx_personality_v0 {
entry:
  %m_ownsBvh = getelementptr inbounds i8, ptr %this, i64 97
  %0 = load i8, ptr %m_ownsBvh, align 1
  %1 = and i8 %0, 1
  %tobool.not = icmp eq i8 %1, 0
  br i1 %tobool.not, label %if.end, label %if.then

if.then:                                          ; preds = %entry
  %m_bvh = getelementptr inbounds i8, ptr %this, i64 80
  %2 = load ptr, ptr %m_bvh, align 8
  %vtable = load ptr, ptr %2, align 8
  %3 = load ptr, ptr %vtable, align 8
  tail call void %3(ptr noundef nonnull align 8 dereferenceable(244) %2) #10
  %4 = load ptr, ptr %m_bvh, align 8
  tail call void @_Z21btAlignedFreeInternalPv(ptr noundef %4)
  br label %if.end

if.end:                                           ; preds = %if.then, %entry
  %call = tail call noundef ptr @_Z22btAlignedAllocInternalmi(i64 noundef 248, i32 noundef 16)
  tail call void @_ZN14btOptimizedBvhC1Ev(ptr noundef nonnull align 8 dereferenceable(244) %call)
  %m_bvh4 = getelementptr inbounds i8, ptr %this, i64 80
  store ptr %call, ptr %m_bvh4, align 8
  %m_meshInterface = getelementptr inbounds i8, ptr %this, i64 72
  %5 = load ptr, ptr %m_meshInterface, align 8
  %m_useQuantizedAabbCompression = getelementptr inbounds i8, ptr %this, i64 96
  %6 = load i8, ptr %m_useQuantizedAabbCompression, align 8
  %7 = and i8 %6, 1
  %tobool6 = icmp ne i8 %7, 0
  %m_localAabbMin = getelementptr inbounds i8, ptr %this, i64 36
  %m_localAabbMax = getelementptr inbounds i8, ptr %this, i64 52
  tail call void @_ZN14btOptimizedBvh5buildEP23btStridingMeshInterfacebRK9btVector3S4_(ptr noundef nonnull align 8 dereferenceable(244) %call, ptr noundef %5, i1 noundef zeroext %tobool6, ptr noundef nonnull align 4 dereferenceable(16) %m_localAabbMin, ptr noundef nonnull align 4 dereferenceable(16) %m_localAabbMax)
  store i8 1, ptr %m_ownsBvh, align 1
  ret void
}